target datalayout = "e-m:e-p270:32:32-p271:32:32-p272:64:64-i64:64-i128:128-f80:128-n8:16:32:64-S128"
target triple = "x86_64-pc-linux-gnu"

%struct.Mio_GateStruct_t_ = type { ptr, double, ptr, ptr, ptr, ptr, ptr, ptr, i32, i32, i32, i32, double, ptr, ptr, %union.anon, i32 }
%union.anon = type { i64 }

; Function Attrs: nounwind uwtable
define i32 @Mio_LibraryCompareGatesByArea(ptr noundef %0, ptr noundef %1) #0 {
  %3 = alloca i32, align 4
  %4 = alloca ptr, align 8
  %5 = alloca ptr, align 8
  %6 = alloca double, align 8
  %7 = alloca i32, align 4
  store ptr %0, ptr %4, align 8, !tbaa !44
  store ptr %1, ptr %5, align 8, !tbaa !44
  call void @llvm.lifetime.start.p0(i64 8, ptr %6) #10
  %8 = load ptr, ptr %4, align 8, !tbaa !44
  %9 = load ptr, ptr %8, align 8, !tbaa !46
  %10 = getelementptr inbounds nuw %struct.Mio_GateStruct_t_, ptr %9, i32 0, i32 1
  %11 = load double, ptr %10, align 8, !tbaa !69
  %12 = load ptr, ptr %5, align 8, !tbaa !44
  %13 = load ptr, ptr %12, align 8, !tbaa !46
  %14 = getelementptr inbounds nuw %struct.Mio_GateStruct_t_, ptr %13, i32 0, i32 1
  %15 = load double, ptr %14, align 8, !tbaa !69
  %16 = fsub double %11, %15
  store double %16, ptr %6, align 8, !tbaa !70
  %17 = load double, ptr %6, align 8, !tbaa !70
  %18 = fcmp olt double %17, 0.000000e+00
  br i1 %18, label %19, label %20

19:                                               ; preds = %2
  store i32 -1, ptr %3, align 4
  store i32 1, ptr %7, align 4
  br label %25

20:                                               ; preds = %2
  %21 = load double, ptr %6, align 8, !tbaa !70
  %22 = fcmp ogt double %21, 0.000000e+00
  br i1 %22, label %23, label %24

23:                                               ; preds = %20
  store i32 1, ptr %3, align 4
  store i32 1, ptr %7, align 4
  br label %25

24:                                               ; preds = %20
  store i32 0, ptr %3, align 4
  store i32 1, ptr %7, align 4
  br label %25

25:                                               ; preds = %24, %23, %19
  call void @llvm.lifetime.end.p0(i64 8, ptr %6) #10
  %26 = load i32, ptr %3, align 4
  ret i32 %26
}